target datalayout = "e-m:e-p270:32:32-p271:32:32-p272:64:64-i64:64-i128:128-f80:128-n8:16:32:64-S128"
target triple = "x86_64-pc-linux-gnu"

%struct.RelMapFile = type { i32, i32, [64 x %struct.RelMapping], i32 }
%struct.RelMapping = type { i32, i32 }

; Function Attrs: nounwind uwtable
define dso_local i32 @RelationMapOidToFilenumberForDatabase(ptr noundef %0, i32 noundef %1) #0 {
  %3 = alloca i32, align 4
  %4 = alloca ptr, align 8
  %5 = alloca i32, align 4
  %6 = alloca %struct.RelMapFile, align 4
  %7 = alloca i32, align 4
  %8 = alloca i32, align 4
  store ptr %0, ptr %4, align 8
  store i32 %1, ptr %5, align 4
  call void @llvm.lifetime.start.p0(i64 524, ptr %6) #8
  call void @llvm.lifetime.start.p0(i64 4, ptr %7) #8
  %9 = load ptr, ptr %4, align 8
  call void @read_relmap_file(ptr noundef %6, ptr noundef %9, i1 noundef zeroext false, i32 noundef 21)
  store i32 0, ptr %7, align 4
  br label %10

10:                                               ; preds = %32, %2
  %11 = load i32, ptr %7, align 4
  %12 = getelementptr inbounds nuw %struct.RelMapFile, ptr %6, i32 0, i32 1
  %13 = load i32, ptr %12, align 4
  %14 = icmp slt i32 %11, %13
  br i1 %14, label %15, label %35

15:                                               ; preds = %10
  %16 = load i32, ptr %5, align 4
  %17 = getelementptr inbounds nuw %struct.RelMapFile, ptr %6, i32 0, i32 2
  %18 = load i32, ptr %7, align 4
  %19 = sext i32 %18 to i64
  %20 = getelementptr inbounds [64 x %struct.RelMapping], ptr %17, i64 0, i64 %19
  %21 = getelementptr inbounds nuw %struct.RelMapping, ptr %20, i32 0, i32 0
  %22 = load i32, ptr %21, align 4
  %23 = icmp eq i32 %16, %22
  br i1 %23, label %24, label %31

24:                                               ; preds = %15
  %25 = getelementptr inbounds nuw %struct.RelMapFile, ptr %6, i32 0, i32 2
  %26 = load i32, ptr %7, align 4
  %27 = sext i32 %26 to i64
  %28 = getelementptr inbounds [64 x %struct.RelMapping], ptr %25, i64 0, i64 %27
  %29 = getelementptr inbounds nuw %struct.RelMapping, ptr %28, i32 0, i32 1
  %30 = load i32, ptr %29, align 4
  store i32 %30, ptr %3, align 4
  store i32 1, ptr %8, align 4
  br label %36

31:                                               ; preds = %15
  br label %32

32:                                               ; preds = %31
  %33 = load i32, ptr %7, align 4
  %34 = add i32 %33, 1
  store i32 %34, ptr %7, align 4
  br label %10, !llvm.loop !15

35:                                               ; preds = %10
  store i32 0, ptr %3, align 4
  store i32 1, ptr %8, align 4
  br label %36

36:                                               ; preds = %35, %24
  call void @llvm.lifetime.end.p0(i64 4, ptr %7) #8
  call void @llvm.lifetime.end.p0(i64 524, ptr %6) #8
  %37 = load i32, ptr %3, align 4
  ret i32 %37
}