; Function Attrs: nounwind uwtable
define dso_local i32 @RelationMapOidToFilenumberForDatabase(ptr noundef %0, i32 noundef %1) local_unnamed_addr #2 {
  %3 = alloca %struct.RelMapFile, align 4
  call void @llvm.lifetime.start.p0(i64 524, ptr nonnull %3) #12
  call fastcc void @read_relmap_file(ptr noundef nonnull %3, ptr noundef %0, i1 noundef zeroext false, i32 noundef 21)
  %4 = getelementptr inbounds nuw i8, ptr %3, i64 4
  %5 = load i32, ptr %4, align 4
  %6 = icmp sgt i32 %5, 0
  br i1 %6, label %.lr.ph, label %.loopexit

.lr.ph:                                           ; preds = %2
  %7 = getelementptr inbounds nuw i8, ptr %3, i64 8
  %wide.trip.count = zext nneg i32 %5 to i64
  br label %9

8:                                                ; preds = %9
  %indvars.iv.next = add nuw nsw i64 %indvars.iv, 1
  %exitcond.not = icmp eq i64 %indvars.iv.next, %wide.trip.count
  br i1 %exitcond.not, label %.loopexit, label %9, !llvm.loop !13

9:                                                ; preds = %.lr.ph, %8
  %indvars.iv = phi i64 [ 0, %.lr.ph ], [ %indvars.iv.next, %8 ]
  %10 = getelementptr inbounds nuw [64 x %struct.RelMapping], ptr %7, i64 0, i64 %indvars.iv
  %11 = load i32, ptr %10, align 4
  %12 = icmp eq i32 %1, %11
  br i1 %12, label %13, label %8

13:                                               ; preds = %9
  %.idx = shl nuw nsw i64 %indvars.iv, 3
  %.offs = or disjoint i64 %.idx, 4
  %14 = getelementptr inbounds nuw i8, ptr %7, i64 %.offs
  %15 = load i32, ptr %14, align 4
  br label %.loopexit

.loopexit:                                        ; preds = %8, %2, %13
  %.06 = phi i32 [ %15, %13 ], [ 0, %2 ], [ 0, %8 ]
  call void @llvm.lifetime.end.p0(i64 524, ptr nonnull %3) #12
  ret i32 %.06
}